(dp0
S'replace_contents'
p1
I2
sS'braces_on_own_line'
p2
S'false'
p3
sS'indent_size'
p4
S'1'
p5
sS'nodejs'
p6
S'node'
p7
sS'indent_char'
p8
S'\t'
p9
sS'csstidy_beautify'
p10
S'low_compression'
p11
sS'csstidy_minify'
p12
S'highest_compression'
p13
sS'decompress'
p14
S'true'
p15
sS'space_after_anon_function'
p16
g15
sS'preserve_newlines'
p17
g15
sS'php'
p18
S'php'
p19
sS'keep_array_indentation'
p20
g15
s.